; ModuleID = '15/196.c'
source_filename = "15/196.c"
target datalayout = "e-m:e-p270:32:32-p271:32:32-p272:64:64-i64:64-f80:128-n8:16:32:64-S128"
target triple = "x86_64-pc-linux-gnu"

@.str = private unnamed_addr constant [3 x i8] c"%d\00", align 1
@.str.1 = private unnamed_addr constant [4 x i8] c"%d\0A\00", align 1

; Function Attrs: noinline nounwind uwtable
define dso_local i32 @main(i32 %0, i8** %1) #0 {
  %3 = alloca i32, align 4
  %4 = alloca i32, align 4
  %5 = alloca i8**, align 8
  %6 = alloca i32, align 4
  %7 = alloca i32, align 4
  %8 = alloca i32, align 4
  %9 = alloca i32, align 4
  %10 = alloca i32, align 4
  %11 = alloca i32, align 4
  %12 = alloca i32, align 4
  %13 = alloca i32, align 4
  %14 = alloca [100 x [100 x i32]], align 16
  store i32 0, i32* %3, align 4
  store i32 %0, i32* %4, align 4
  store i8** %1, i8*** %5, align 8
  store i32 0, i32* %11, align 4
  store i32 0, i32* %12, align 4
  %15 = call i32 (i8*, ...) @__isoc99_scanf(i8* getelementptr inbounds ([3 x i8], [3 x i8]* @.str, i64 0, i64 0), i32* %6)
  store i32 0, i32* %7, align 4
  br label %16

16:                                               ; preds = %50, %2
  %17 = load i32, i32* %7, align 4
  %18 = load i32, i32* %6, align 4
  %19 = icmp slt i32 %17, %18
  br i1 %19, label %20, label %53

20:                                               ; preds = %16
  store i32 0, i32* %8, align 4
  br label %21

21:                                               ; preds = %33, %20
  %22 = load i32, i32* %8, align 4
  %23 = load i32, i32* %6, align 4
  %24 = icmp slt i32 %22, %23
  br i1 %24, label %25, label %36

25:                                               ; preds = %21
  %26 = load i32, i32* %7, align 4
  %27 = sext i32 %26 to i64
  %28 = getelementptr inbounds [100 x [100 x i32]], [100 x [100 x i32]]* %14, i64 0, i64 %27
  %29 = load i32, i32* %8, align 4
  %30 = sext i32 %29 to i64
  %31 = getelementptr inbounds [100 x i32], [100 x i32]* %28, i64 0, i64 %30
  %32 = call i32 (i8*, ...) @__isoc99_scanf(i8* getelementptr inbounds ([3 x i8], [3 x i8]* @.str, i64 0, i64 0), i32* %31)
  br label %33

33:                                               ; preds = %25
  %34 = load i32, i32* %8, align 4
  %35 = add nsw i32 %34, 1
  store i32 %35, i32* %8, align 4
  br label %21

36:                                               ; preds = %21
  %37 = load i32, i32* %8, align 4
  %38 = load i32, i32* %6, align 4
  %39 = sub nsw i32 %38, 1
  %40 = icmp eq i32 %37, %39
  br i1 %40, label %41, label %49

41:                                               ; preds = %36
  %42 = load i32, i32* %7, align 4
  %43 = sext i32 %42 to i64
  %44 = getelementptr inbounds [100 x [100 x i32]], [100 x [100 x i32]]* %14, i64 0, i64 %43
  %45 = load i32, i32* %8, align 4
  %46 = sext i32 %45 to i64
  %47 = getelementptr inbounds [100 x i32], [100 x i32]* %44, i64 0, i64 %46
  %48 = call i32 (i8*, ...) @__isoc99_scanf(i8* getelementptr inbounds ([4 x i8], [4 x i8]* @.str.1, i64 0, i64 0), i32* %47)
  br label %49

49:                                               ; preds = %41, %36
  br label %50

50:                                               ; preds = %49
  %51 = load i32, i32* %7, align 4
  %52 = add nsw i32 %51, 1
  store i32 %52, i32* %7, align 4
  br label %16

53:                                               ; preds = %16
  store i32 0, i32* %7, align 4
  br label %54

54:                                               ; preds = %84, %53
  %55 = load i32, i32* %7, align 4
  %56 = load i32, i32* %6, align 4
  %57 = icmp slt i32 %55, %56
  br i1 %57, label %58, label %87

58:                                               ; preds = %54
  store i32 0, i32* %8, align 4
  br label %59

59:                                               ; preds = %76, %58
  %60 = load i32, i32* %8, align 4
  %61 = load i32, i32* %6, align 4
  %62 = icmp slt i32 %60, %61
  br i1 %62, label %63, label %79

63:                                               ; preds = %59
  %64 = load i32, i32* %7, align 4
  %65 = sext i32 %64 to i64
  %66 = getelementptr inbounds [100 x [100 x i32]], [100 x [100 x i32]]* %14, i64 0, i64 %65
  %67 = load i32, i32* %8, align 4
  %68 = sext i32 %67 to i64
  %69 = getelementptr inbounds [100 x i32], [100 x i32]* %66, i64 0, i64 %68
  %70 = load i32, i32* %69, align 4
  %71 = icmp eq i32 %70, 0
  br i1 %71, label %72, label %75

72:                                               ; preds = %63
  %73 = load i32, i32* %11, align 4
  %74 = add nsw i32 %73, 1
  store i32 %74, i32* %11, align 4
  br label %75

75:                                               ; preds = %72, %63
  br label %76

76:                                               ; preds = %75
  %77 = load i32, i32* %8, align 4
  %78 = add nsw i32 %77, 1
  store i32 %78, i32* %8, align 4
  br label %59

79:                                               ; preds = %59
  %80 = load i32, i32* %11, align 4
  %81 = icmp ne i32 %80, 0
  br i1 %81, label %82, label %83

82:                                               ; preds = %79
  br label %87

83:                                               ; preds = %79
  br label %84

84:                                               ; preds = %83
  %85 = load i32, i32* %7, align 4
  %86 = add nsw i32 %85, 1
  store i32 %86, i32* %7, align 4
  br label %54

87:                                               ; preds = %82, %54
  store i32 0, i32* %9, align 4
  br label %88

88:                                               ; preds = %118, %87
  %89 = load i32, i32* %9, align 4
  %90 = load i32, i32* %6, align 4
  %91 = icmp slt i32 %89, %90
  br i1 %91, label %92, label %121

92:                                               ; preds = %88
  store i32 0, i32* %10, align 4
  br label %93

93:                                               ; preds = %110, %92
  %94 = load i32, i32* %10, align 4
  %95 = load i32, i32* %6, align 4
  %96 = icmp slt i32 %94, %95
  br i1 %96, label %97, label %113

97:                                               ; preds = %93
  %98 = load i32, i32* %10, align 4
  %99 = sext i32 %98 to i64
  %100 = getelementptr inbounds [100 x [100 x i32]], [100 x [100 x i32]]* %14, i64 0, i64 %99
  %101 = load i32, i32* %9, align 4
  %102 = sext i32 %101 to i64
  %103 = getelementptr inbounds [100 x i32], [100 x i32]* %100, i64 0, i64 %102
  %104 = load i32, i32* %103, align 4
  %105 = icmp eq i32 %104, 0
  br i1 %105, label %106, label %109

106:                                              ; preds = %97
  %107 = load i32, i32* %12, align 4
  %108 = add nsw i32 %107, 1
  store i32 %108, i32* %12, align 4
  br label %109

109:                                              ; preds = %106, %97
  br label %110

110:                                              ; preds = %109
  %111 = load i32, i32* %10, align 4
  %112 = add nsw i32 %111, 1
  store i32 %112, i32* %10, align 4
  br label %93

113:                                              ; preds = %93
  %114 = load i32, i32* %12, align 4
  %115 = icmp ne i32 %114, 0
  br i1 %115, label %116, label %117

116:                                              ; preds = %113
  br label %121

117:                                              ; preds = %113
  br label %118

118:                                              ; preds = %117
  %119 = load i32, i32* %9, align 4
  %120 = add nsw i32 %119, 1
  store i32 %120, i32* %9, align 4
  br label %88

121:                                              ; preds = %116, %88
  %122 = load i32, i32* %11, align 4
  %123 = sub nsw i32 %122, 2
  %124 = load i32, i32* %12, align 4
  %125 = sub nsw i32 %124, 2
  %126 = mul nsw i32 %123, %125
  store i32 %126, i32* %13, align 4
  %127 = load i32, i32* %13, align 4
  %128 = call i32 (i8*, ...) @printf(i8* getelementptr inbounds ([3 x i8], [3 x i8]* @.str, i64 0, i64 0), i32 %127)
  ret i32 0
}

declare dso_local i32 @__isoc99_scanf(i8*, ...) #1

declare dso_local i32 @printf(i8*, ...) #1


!llvm.module.flags = !{!0}
!llvm.ident = !{!1}

!0 = !{i32 1, !"wchar_size", i32 4}
!1 = !{!"clang version 10.0.0-4ubuntu1 "}
